; Function Attrs: nounwind uwtable
define internal range(i32 -2147483648, 1) i32 @framehash_init(ptr noundef readonly captures(none) %0) #0 {
  %2 = getelementptr inbounds nuw i8, ptr %0, i64 24
  %3 = load ptr, ptr %2, align 8, !tbaa !4
  %4 = getelementptr inbounds nuw i8, ptr %3, i64 24
  store i32 0, ptr %4, align 8, !tbaa !27
  %5 = tail call noalias ptr @av_mallocz(i64 noundef 8) #6
  %6 = getelementptr inbounds nuw i8, ptr %3, i64 8
  store ptr %5, ptr %6, align 8, !tbaa !24
  %.not = icmp eq ptr %5, null
  br i1 %.not, label %11, label %7

7:                                                ; preds = %1
  %8 = getelementptr inbounds nuw i8, ptr %3, i64 16
  %9 = load ptr, ptr %8, align 8, !tbaa !50
  %10 = tail call i32 @av_hash_alloc(ptr noundef nonnull %5, ptr noundef %9) #6
  %. = tail call i32 @llvm.smin.i32(i32 %10, i32 0)
  br label %11

11:                                               ; preds = %7, %1
  %.0 = phi i32 [ -12, %1 ], [ %., %7 ]
  ret i32 %.0
}